; Function Attrs: mustprogress nounwind uwtable
define internal void @_ZN12_GLOBAL__N_114SelectOptimizeD0Ev(ptr noundef nonnull align 8 dereferenceable(376) %0) unnamed_addr #0 align 2 {
  store ptr getelementptr inbounds inrange(-16, 144) (i8, ptr @_ZTVN12_GLOBAL__N_114SelectOptimizeE, i64 16), ptr %0, align 8
  %2 = getelementptr inbounds i8, ptr %0, i64 288
  %3 = tail call noundef i64 @_ZNK4llvm15SmallVectorBaseIjE4sizeEv(ptr noundef nonnull align 8 dereferenceable(16) %2) #17
  %4 = load ptr, ptr %2, align 8
  %5 = getelementptr inbounds i8, ptr %0, i64 304
  %6 = icmp eq ptr %4, %5
  br i1 %6, label %_ZN12_GLOBAL__N_114SelectOptimizeD2Ev.exit, label %7

7:                                                ; preds = %1
  tail call void @free(ptr noundef %4) #17
  br label %_ZN12_GLOBAL__N_114SelectOptimizeD2Ev.exit

_ZN12_GLOBAL__N_114SelectOptimizeD2Ev.exit:       ; preds = %1, %7
  tail call void @_ZN4llvm4PassD2Ev(ptr noundef nonnull align 8 dereferenceable(28) %0) #17
  tail call void @_ZdlPvm(ptr noundef nonnull %0, i64 noundef 376) #20
  ret void
}